; ModuleID = '24/2069.c'
source_filename = "24/2069.c"
target datalayout = "e-m:e-p270:32:32-p271:32:32-p272:64:64-i64:64-f80:128-n8:16:32:64-S128"
target triple = "x86_64-pc-linux-gnu"

@.str = private unnamed_addr constant [4 x i8] c"%s\0A\00", align 1
@.str.1 = private unnamed_addr constant [3 x i8] c"%s\00", align 1

; Function Attrs: noinline nounwind uwtable
define dso_local i32 @main() #0 {
  %1 = alloca i32, align 4
  %2 = alloca i32, align 4
  %3 = alloca i32, align 4
  %4 = alloca i32, align 4
  %5 = alloca i32, align 4
  %6 = alloca i32, align 4
  %7 = alloca i32, align 4
  %8 = alloca [6000 x i8], align 16
  %9 = alloca [200 x [30 x i8]], align 16
  store i32 0, i32* %1, align 4
  store i32 0, i32* %3, align 4
  store i32 0, i32* %4, align 4
  %10 = getelementptr inbounds [6000 x i8], [6000 x i8]* %8, i64 0, i64 0
  %11 = call i32 (i8*, ...) bitcast (i32 (...)* @gets to i32 (i8*, ...)*)(i8* %10)
  %12 = getelementptr inbounds [6000 x i8], [6000 x i8]* %8, i64 0, i64 0
  %13 = call i64 @strlen(i8* %12) #3
  %14 = trunc i64 %13 to i32
  store i32 %14, i32* %5, align 4
  store i32 0, i32* %2, align 4
  br label %15

15:                                               ; preds = %56, %0
  %16 = load i32, i32* %2, align 4
  %17 = load i32, i32* %5, align 4
  %18 = icmp slt i32 %16, %17
  br i1 %18, label %19, label %59

19:                                               ; preds = %15
  %20 = load i32, i32* %2, align 4
  %21 = sext i32 %20 to i64
  %22 = getelementptr inbounds [6000 x i8], [6000 x i8]* %8, i64 0, i64 %21
  %23 = load i8, i8* %22, align 1
  %24 = sext i8 %23 to i32
  %25 = icmp ne i32 %24, 32
  br i1 %25, label %26, label %46

26:                                               ; preds = %19
  %27 = load i32, i32* %2, align 4
  %28 = sext i32 %27 to i64
  %29 = getelementptr inbounds [6000 x i8], [6000 x i8]* %8, i64 0, i64 %28
  %30 = load i8, i8* %29, align 1
  %31 = sext i8 %30 to i32
  %32 = icmp ne i32 %31, 44
  br i1 %32, label %33, label %46

33:                                               ; preds = %26
  %34 = load i32, i32* %2, align 4
  %35 = sext i32 %34 to i64
  %36 = getelementptr inbounds [6000 x i8], [6000 x i8]* %8, i64 0, i64 %35
  %37 = load i8, i8* %36, align 1
  %38 = load i32, i32* %3, align 4
  %39 = sext i32 %38 to i64
  %40 = getelementptr inbounds [200 x [30 x i8]], [200 x [30 x i8]]* %9, i64 0, i64 %39
  %41 = load i32, i32* %4, align 4
  %42 = sext i32 %41 to i64
  %43 = getelementptr inbounds [30 x i8], [30 x i8]* %40, i64 0, i64 %42
  store i8 %37, i8* %43, align 1
  %44 = load i32, i32* %4, align 4
  %45 = add nsw i32 %44, 1
  store i32 %45, i32* %4, align 4
  br label %55

46:                                               ; preds = %26, %19
  %47 = load i32, i32* %3, align 4
  %48 = sext i32 %47 to i64
  %49 = getelementptr inbounds [200 x [30 x i8]], [200 x [30 x i8]]* %9, i64 0, i64 %48
  %50 = load i32, i32* %4, align 4
  %51 = sext i32 %50 to i64
  %52 = getelementptr inbounds [30 x i8], [30 x i8]* %49, i64 0, i64 %51
  store i8 0, i8* %52, align 1
  %53 = load i32, i32* %3, align 4
  %54 = add nsw i32 %53, 1
  store i32 %54, i32* %3, align 4
  store i32 0, i32* %4, align 4
  br label %55

55:                                               ; preds = %46, %33
  br label %56

56:                                               ; preds = %55
  %57 = load i32, i32* %2, align 4
  %58 = add nsw i32 %57, 1
  store i32 %58, i32* %2, align 4
  br label %15

59:                                               ; preds = %15
  %60 = load i32, i32* %3, align 4
  %61 = sext i32 %60 to i64
  %62 = getelementptr inbounds [200 x [30 x i8]], [200 x [30 x i8]]* %9, i64 0, i64 %61
  %63 = load i32, i32* %4, align 4
  %64 = sext i32 %63 to i64
  %65 = getelementptr inbounds [30 x i8], [30 x i8]* %62, i64 0, i64 %64
  store i8 0, i8* %65, align 1
  store i32 0, i32* %6, align 4
  store i32 0, i32* %4, align 4
  br label %66

66:                                               ; preds = %86, %59
  %67 = load i32, i32* %4, align 4
  %68 = load i32, i32* %3, align 4
  %69 = add nsw i32 %68, 1
  %70 = icmp slt i32 %67, %69
  br i1 %70, label %71, label %89

71:                                               ; preds = %66
  %72 = load i32, i32* %4, align 4
  %73 = sext i32 %72 to i64
  %74 = getelementptr inbounds [200 x [30 x i8]], [200 x [30 x i8]]* %9, i64 0, i64 %73
  %75 = getelementptr inbounds [30 x i8], [30 x i8]* %74, i64 0, i64 0
  %76 = call i64 @strlen(i8* %75) #3
  %77 = load i32, i32* %6, align 4
  %78 = sext i32 %77 to i64
  %79 = getelementptr inbounds [200 x [30 x i8]], [200 x [30 x i8]]* %9, i64 0, i64 %78
  %80 = getelementptr inbounds [30 x i8], [30 x i8]* %79, i64 0, i64 0
  %81 = call i64 @strlen(i8* %80) #3
  %82 = icmp ugt i64 %76, %81
  br i1 %82, label %83, label %85

83:                                               ; preds = %71
  %84 = load i32, i32* %4, align 4
  store i32 %84, i32* %6, align 4
  br label %85

85:                                               ; preds = %83, %71
  br label %86

86:                                               ; preds = %85
  %87 = load i32, i32* %4, align 4
  %88 = add nsw i32 %87, 1
  store i32 %88, i32* %4, align 4
  br label %66

89:                                               ; preds = %66
  %90 = load i32, i32* %6, align 4
  %91 = sext i32 %90 to i64
  %92 = getelementptr inbounds [200 x [30 x i8]], [200 x [30 x i8]]* %9, i64 0, i64 %91
  %93 = getelementptr inbounds [30 x i8], [30 x i8]* %92, i64 0, i64 0
  %94 = call i32 (i8*, ...) @printf(i8* getelementptr inbounds ([4 x i8], [4 x i8]* @.str, i64 0, i64 0), i8* %93)
  store i32 0, i32* %7, align 4
  store i32 0, i32* %4, align 4
  br label %95

95:                                               ; preds = %122, %89
  %96 = load i32, i32* %4, align 4
  %97 = load i32, i32* %3, align 4
  %98 = add nsw i32 %97, 1
  %99 = icmp slt i32 %96, %98
  br i1 %99, label %100, label %125

100:                                              ; preds = %95
  %101 = load i32, i32* %4, align 4
  %102 = sext i32 %101 to i64
  %103 = getelementptr inbounds [200 x [30 x i8]], [200 x [30 x i8]]* %9, i64 0, i64 %102
  %104 = getelementptr inbounds [30 x i8], [30 x i8]* %103, i64 0, i64 0
  %105 = call i64 @strlen(i8* %104) #3
  %106 = load i32, i32* %7, align 4
  %107 = sext i32 %106 to i64
  %108 = getelementptr inbounds [200 x [30 x i8]], [200 x [30 x i8]]* %9, i64 0, i64 %107
  %109 = getelementptr inbounds [30 x i8], [30 x i8]* %108, i64 0, i64 0
  %110 = call i64 @strlen(i8* %109) #3
  %111 = icmp ult i64 %105, %110
  br i1 %111, label %112, label %121

112:                                              ; preds = %100
  %113 = load i32, i32* %4, align 4
  %114 = sext i32 %113 to i64
  %115 = getelementptr inbounds [200 x [30 x i8]], [200 x [30 x i8]]* %9, i64 0, i64 %114
  %116 = getelementptr inbounds [30 x i8], [30 x i8]* %115, i64 0, i64 0
  %117 = call i64 @strlen(i8* %116) #3
  %118 = icmp ne i64 %117, 0
  br i1 %118, label %119, label %121

119:                                              ; preds = %112
  %120 = load i32, i32* %4, align 4
  store i32 %120, i32* %7, align 4
  br label %121

121:                                              ; preds = %119, %112, %100
  br label %122

122:                                              ; preds = %121
  %123 = load i32, i32* %4, align 4
  %124 = add nsw i32 %123, 1
  store i32 %124, i32* %4, align 4
  br label %95

125:                                              ; preds = %95
  %126 = load i32, i32* %7, align 4
  %127 = sext i32 %126 to i64
  %128 = getelementptr inbounds [200 x [30 x i8]], [200 x [30 x i8]]* %9, i64 0, i64 %127
  %129 = getelementptr inbounds [30 x i8], [30 x i8]* %128, i64 0, i64 0
  %130 = call i32 (i8*, ...) @printf(i8* getelementptr inbounds ([3 x i8], [3 x i8]* @.str.1, i64 0, i64 0), i8* %129)
  ret i32 0
}

declare dso_local i32 @gets(...) #1

; Function Attrs: nounwind readonly
declare dso_local i64 @strlen(i8*) #2

declare dso_local i32 @printf(i8*, ...) #1


!llvm.module.flags = !{!0}
!llvm.ident = !{!1}

!0 = !{i32 1, !"wchar_size", i32 4}
!1 = !{!"clang version 10.0.0-4ubuntu1 "}
